target datalayout = "e-m:e-p270:32:32-p271:32:32-p272:64:64-i64:64-i128:128-f80:128-n8:16:32:64-S128"
target triple = "x86_64-pc-linux-gnu"

%struct.png_struct_def = type { [1 x %struct.__jmp_buf_tag], ptr, ptr, i64, ptr, ptr, ptr, ptr, ptr, ptr, ptr, ptr, ptr, i8, i8, i32, i32, i32, i32, %struct.z_stream_s, ptr, i32, i32, i32, i32, i32, i32, i32, i32, i32, i32, i32, i32, i32, i32, i32, i32, i32, i32, i32, i32, i64, i32, i32, i32, ptr, ptr, ptr, ptr, i64, i32, i32, ptr, i16, i32, i16, i8, i8, i8, i8, i8, i8, i8, i8, i8, i8, i8, i8, i8, i8, i8, i16, i8, i32, %struct.png_color_16_struct, %struct.png_color_16_struct, ptr, i32, i32, i32, i32, ptr, ptr, ptr, ptr, ptr, ptr, %struct.png_color_8_struct, %struct.png_color_8_struct, ptr, %struct.png_color_16_struct, ptr, ptr, ptr, ptr, ptr, ptr, ptr, ptr, ptr, i32, i32, i64, i64, i64, i64, i32, i32, ptr, ptr, i32, [29 x i8], i32, ptr, ptr, i32, i32, ptr, i8, i8, i16, i16, ptr, i32, i8, ptr, ptr, ptr, ptr, ptr, ptr, ptr, i8, i32, i32, i32, i64, %struct.png_unknown_chunk_t, i64, ptr, i64, i32, i32, ptr, [4 x ptr], %struct.png_colorspace }
%struct.__jmp_buf_tag = type { [8 x i64], i32, %struct.__sigset_t }
%struct.__sigset_t = type { [16 x i64] }
%struct.z_stream_s = type { ptr, i32, i64, ptr, i32, i64, ptr, ptr, ptr, ptr, ptr, i32, i64, i64 }
%struct.png_color_8_struct = type { i8, i8, i8, i8, i8 }
%struct.png_color_16_struct = type { i8, i16, i16, i16, i16 }
%struct.png_unknown_chunk_t = type { [5 x i8], ptr, i64, i8 }
%struct.png_colorspace = type { i32, %struct.png_xy, %struct.png_XYZ, i16, i16 }
%struct.png_xy = type { i32, i32, i32, i32, i32, i32, i32, i32 }
%struct.png_XYZ = type { i32, i32, i32, i32, i32, i32, i32, i32, i32 }
%struct.png_info_def = type { i32, i32, i32, i64, ptr, i16, i16, i8, i8, i8, i8, i8, i8, i8, i8, [8 x i8], %struct.png_colorspace, ptr, ptr, i32, i32, i32, ptr, %struct.png_time_struct, %struct.png_color_8_struct, ptr, %struct.png_color_16_struct, %struct.png_color_16_struct, i32, i32, i8, i32, i32, i8, i32, ptr, ptr, ptr, ptr, i32, i32, ptr, ptr, i8, i8, i32, ptr, i32, ptr, i32, i8, ptr, ptr, ptr }
%struct.png_time_struct = type { i16, i8, i8, i8, i8, i8 }
%struct.png_image = type { ptr, i32, i32, i32, i32, i32, i32, i32, [64 x i8] }
%struct.png_control = type { ptr, ptr, ptr, ptr, i64, i8 }
%struct.png_image_read_control = type { ptr, ptr, i32, ptr, ptr, ptr, ptr, i64, i32, i32, i32 }

@.str.3 = private unnamed_addr constant [58 x i8] c"png_read_update_info/png_start_read_image: duplicate call\00", align 1
@.str.51 = private unnamed_addr constant [42 x i8] c"bad color-map processing (internal error)\00", align 1
@png_image_skip_unused_chunks.chunks_to_process = internal constant [30 x i8] c"bKGD\00cHRM\00gAMA\00iCCP\00sBIT\00sRGB\00", align 16

; Function Attrs: nounwind uwtable
define void @png_read_update_info(ptr noalias noundef %0, ptr noalias noundef %1) #0 {
  %3 = alloca ptr, align 8
  %4 = alloca ptr, align 8
  store ptr %0, ptr %3, align 8
  store ptr %1, ptr %4, align 8
  %5 = load ptr, ptr %3, align 8
  %6 = icmp ne ptr %5, null
  br i1 %6, label %7, label %20

7:                                                ; preds = %2
  %8 = load ptr, ptr %3, align 8
  %9 = getelementptr inbounds %struct.png_struct_def, ptr %8, i32 0, i32 16
  %10 = load i32, ptr %9, align 8
  %11 = and i32 %10, 64
  %12 = icmp eq i32 %11, 0
  br i1 %12, label %13, label %17

13:                                               ; preds = %7
  %14 = load ptr, ptr %3, align 8
  call void @png_read_start_row(ptr noundef %14)
  %15 = load ptr, ptr %3, align 8
  %16 = load ptr, ptr %4, align 8
  call void @png_read_transform_info(ptr noundef %15, ptr noundef %16)
  br label %19

17:                                               ; preds = %7
  %18 = load ptr, ptr %3, align 8
  call void @png_app_error(ptr noundef %18, ptr noundef @.str.3)
  br label %19

19:                                               ; preds = %17, %13
  br label %20

20:                                               ; preds = %19, %2
  ret void
}

; Function Attrs: nounwind uwtable
define internal void @png_image_skip_unused_chunks(ptr noalias noundef %0) #0 {
  %2 = alloca ptr, align 8
  store ptr %0, ptr %2, align 8
  %3 = load ptr, ptr %2, align 8
  call void @png_set_keep_unknown_chunks(ptr noundef %3, i32 noundef 1, ptr noundef null, i32 noundef -1)
  %4 = load ptr, ptr %2, align 8
  call void @png_set_keep_unknown_chunks(ptr noundef %4, i32 noundef 0, ptr noundef @png_image_skip_unused_chunks.chunks_to_process, i32 noundef 6)
  ret void
}

; Function Attrs: nounwind uwtable
define internal i32 @png_image_read_colormapped(ptr noundef %0) #0 {
  %2 = alloca i32, align 4
  %3 = alloca ptr, align 8
  %4 = alloca ptr, align 8
  %5 = alloca ptr, align 8
  %6 = alloca ptr, align 8
  %7 = alloca ptr, align 8
  %8 = alloca ptr, align 8
  %9 = alloca i32, align 4
  %10 = alloca ptr, align 8
  %11 = alloca i64, align 8
  %12 = alloca ptr, align 8
  %13 = alloca i32, align 4
  %14 = alloca ptr, align 8
  %15 = alloca i64, align 8
  %16 = alloca i32, align 4
  %17 = alloca ptr, align 8
  store ptr %0, ptr %3, align 8
  %18 = load ptr, ptr %3, align 8
  store ptr %18, ptr %4, align 8
  %19 = load ptr, ptr %4, align 8
  %20 = getelementptr inbounds %struct.png_image_read_control, ptr %19, i32 0, i32 0
  %21 = load ptr, ptr %20, align 8
  store ptr %21, ptr %5, align 8
  %22 = load ptr, ptr %5, align 8
  %23 = getelementptr inbounds %struct.png_image, ptr %22, i32 0, i32 0
  %24 = load ptr, ptr %23, align 8
  store ptr %24, ptr %6, align 8
  %25 = load ptr, ptr %6, align 8
  %26 = getelementptr inbounds %struct.png_control, ptr %25, i32 0, i32 0
  %27 = load ptr, ptr %26, align 8
  store ptr %27, ptr %7, align 8
  %28 = load ptr, ptr %6, align 8
  %29 = getelementptr inbounds %struct.png_control, ptr %28, i32 0, i32 1
  %30 = load ptr, ptr %29, align 8
  store ptr %30, ptr %8, align 8
  store i32 0, ptr %9, align 4
  %31 = load ptr, ptr %7, align 8
  call void @png_image_skip_unused_chunks(ptr noundef %31)
  %32 = load ptr, ptr %4, align 8
  %33 = getelementptr inbounds %struct.png_image_read_control, ptr %32, i32 0, i32 10
  %34 = load i32, ptr %33, align 8
  %35 = icmp eq i32 %34, 0
  br i1 %35, label %36, label %39

36:                                               ; preds = %1
  %37 = load ptr, ptr %7, align 8
  %38 = call i32 @png_set_interlace_handling(ptr noundef %37)
  store i32 %38, ptr %9, align 4
  br label %39

39:                                               ; preds = %36, %1
  %40 = load ptr, ptr %7, align 8
  %41 = load ptr, ptr %8, align 8
  call void @png_read_update_info(ptr noundef %40, ptr noundef %41)
  %42 = load ptr, ptr %4, align 8
  %43 = getelementptr inbounds %struct.png_image_read_control, ptr %42, i32 0, i32 10
  %44 = load i32, ptr %43, align 8
  switch i32 %44, label %137 [
    i32 0, label %45
    i32 2, label %65
    i32 1, label %65
    i32 3, label %89
    i32 4, label %113
  ]

45:                                               ; preds = %39
  %46 = load ptr, ptr %8, align 8
  %47 = getelementptr inbounds %struct.png_info_def, ptr %46, i32 0, i32 8
  %48 = load i8, ptr %47, align 1
  %49 = zext i8 %48 to i32
  %50 = icmp eq i32 %49, 3
  br i1 %50, label %57, label %51

51:                                               ; preds = %45
  %52 = load ptr, ptr %8, align 8
  %53 = getelementptr inbounds %struct.png_info_def, ptr %52, i32 0, i32 8
  %54 = load i8, ptr %53, align 1
  %55 = zext i8 %54 to i32
  %56 = icmp eq i32 %55, 0
  br i1 %56, label %57, label %64

57:                                               ; preds = %51, %45
  %58 = load ptr, ptr %8, align 8
  %59 = getelementptr inbounds %struct.png_info_def, ptr %58, i32 0, i32 7
  %60 = load i8, ptr %59, align 4
  %61 = zext i8 %60 to i32
  %62 = icmp eq i32 %61, 8
  br i1 %62, label %63, label %64

63:                                               ; preds = %57
  br label %140

64:                                               ; preds = %57, %51
  br label %138

65:                                               ; preds = %39, %39
  %66 = load ptr, ptr %8, align 8
  %67 = getelementptr inbounds %struct.png_info_def, ptr %66, i32 0, i32 8
  %68 = load i8, ptr %67, align 1
  %69 = zext i8 %68 to i32
  %70 = icmp eq i32 %69, 4
  br i1 %70, label %71, label %88

71:                                               ; preds = %65
  %72 = load ptr, ptr %8, align 8
  %73 = getelementptr inbounds %struct.png_info_def, ptr %72, i32 0, i32 7
  %74 = load i8, ptr %73, align 4
  %75 = zext i8 %74 to i32
  %76 = icmp eq i32 %75, 8
  br i1 %76, label %77, label %88

77:                                               ; preds = %71
  %78 = load ptr, ptr %7, align 8
  %79 = getelementptr inbounds %struct.png_struct_def, ptr %78, i32 0, i32 80
  %80 = load i32, ptr %79, align 4
  %81 = icmp eq i32 %80, 220000
  br i1 %81, label %82, label %88

82:                                               ; preds = %77
  %83 = load ptr, ptr %5, align 8
  %84 = getelementptr inbounds %struct.png_image, ptr %83, i32 0, i32 6
  %85 = load i32, ptr %84, align 4
  %86 = icmp eq i32 %85, 256
  br i1 %86, label %87, label %88

87:                                               ; preds = %82
  br label %140

88:                                               ; preds = %82, %77, %71, %65
  br label %138

89:                                               ; preds = %39
  %90 = load ptr, ptr %8, align 8
  %91 = getelementptr inbounds %struct.png_info_def, ptr %90, i32 0, i32 8
  %92 = load i8, ptr %91, align 1
  %93 = zext i8 %92 to i32
  %94 = icmp eq i32 %93, 2
  br i1 %94, label %95, label %112

95:                                               ; preds = %89
  %96 = load ptr, ptr %8, align 8
  %97 = getelementptr inbounds %struct.png_info_def, ptr %96, i32 0, i32 7
  %98 = load i8, ptr %97, align 4
  %99 = zext i8 %98 to i32
  %100 = icmp eq i32 %99, 8
  br i1 %100, label %101, label %112

101:                                              ; preds = %95
  %102 = load ptr, ptr %7, align 8
  %103 = getelementptr inbounds %struct.png_struct_def, ptr %102, i32 0, i32 80
  %104 = load i32, ptr %103, align 4
  %105 = icmp eq i32 %104, 220000
  br i1 %105, label %106, label %112

106:                                              ; preds = %101
  %107 = load ptr, ptr %5, align 8
  %108 = getelementptr inbounds %struct.png_image, ptr %107, i32 0, i32 6
  %109 = load i32, ptr %108, align 4
  %110 = icmp eq i32 %109, 216
  br i1 %110, label %111, label %112

111:                                              ; preds = %106
  br label %140

112:                                              ; preds = %106, %101, %95, %89
  br label %138

113:                                              ; preds = %39
  %114 = load ptr, ptr %8, align 8
  %115 = getelementptr inbounds %struct.png_info_def, ptr %114, i32 0, i32 8
  %116 = load i8, ptr %115, align 1
  %117 = zext i8 %116 to i32
  %118 = icmp eq i32 %117, 6
  br i1 %118, label %119, label %136

119:                                              ; preds = %113
  %120 = load ptr, ptr %8, align 8
  %121 = getelementptr inbounds %struct.png_info_def, ptr %120, i32 0, i32 7
  %122 = load i8, ptr %121, align 4
  %123 = zext i8 %122 to i32
  %124 = icmp eq i32 %123, 8
  br i1 %124, label %125, label %136

125:                                              ; preds = %119
  %126 = load ptr, ptr %7, align 8
  %127 = getelementptr inbounds %struct.png_struct_def, ptr %126, i32 0, i32 80
  %128 = load i32, ptr %127, align 4
  %129 = icmp eq i32 %128, 220000
  br i1 %129, label %130, label %136

130:                                              ; preds = %125
  %131 = load ptr, ptr %5, align 8
  %132 = getelementptr inbounds %struct.png_image, ptr %131, i32 0, i32 6
  %133 = load i32, ptr %132, align 4
  %134 = icmp eq i32 %133, 244
  br i1 %134, label %135, label %136

135:                                              ; preds = %130
  br label %140

136:                                              ; preds = %130, %125, %119, %113
  br label %138

137:                                              ; preds = %39
  br label %138

138:                                              ; preds = %137, %136, %112, %88, %64
  %139 = load ptr, ptr %7, align 8
  call void @png_error(ptr noundef %139, ptr noundef @.str.51) #8
  unreachable

140:                                              ; preds = %135, %111, %87, %63
  %141 = load ptr, ptr %4, align 8
  %142 = getelementptr inbounds %struct.png_image_read_control, ptr %141, i32 0, i32 1
  %143 = load ptr, ptr %142, align 8
  store ptr %143, ptr %10, align 8
  %144 = load ptr, ptr %4, align 8
  %145 = getelementptr inbounds %struct.png_image_read_control, ptr %144, i32 0, i32 2
  %146 = load i32, ptr %145, align 8
  %147 = sext i32 %146 to i64
  store i64 %147, ptr %11, align 8
  %148 = load i64, ptr %11, align 8
  %149 = icmp slt i64 %148, 0
  br i1 %149, label %150, label %163

150:                                              ; preds = %140
  %151 = load ptr, ptr %10, align 8
  store ptr %151, ptr %12, align 8
  %152 = load ptr, ptr %5, align 8
  %153 = getelementptr inbounds %struct.png_image, ptr %152, i32 0, i32 3
  %154 = load i32, ptr %153, align 8
  %155 = sub i32 %154, 1
  %156 = zext i32 %155 to i64
  %157 = load i64, ptr %11, align 8
  %158 = sub nsw i64 0, %157
  %159 = mul nsw i64 %156, %158
  %160 = load ptr, ptr %12, align 8
  %161 = getelementptr inbounds i8, ptr %160, i64 %159
  store ptr %161, ptr %12, align 8
  %162 = load ptr, ptr %12, align 8
  store ptr %162, ptr %10, align 8
  br label %163

163:                                              ; preds = %150, %140
  %164 = load ptr, ptr %10, align 8
  %165 = load ptr, ptr %4, align 8
  %166 = getelementptr inbounds %struct.png_image_read_control, ptr %165, i32 0, i32 6
  store ptr %164, ptr %166, align 8
  %167 = load i64, ptr %11, align 8
  %168 = load ptr, ptr %4, align 8
  %169 = getelementptr inbounds %struct.png_image_read_control, ptr %168, i32 0, i32 7
  store i64 %167, ptr %169, align 8
  %170 = load i32, ptr %9, align 4
  %171 = icmp eq i32 %170, 0
  br i1 %171, label %172, label %189

172:                                              ; preds = %163
  %173 = load ptr, ptr %7, align 8
  %174 = load ptr, ptr %7, align 8
  %175 = load ptr, ptr %8, align 8
  %176 = call i64 @png_get_rowbytes(ptr noundef %174, ptr noundef %175)
  %177 = call noalias ptr @png_malloc(ptr noundef %173, i64 noundef %176)
  store ptr %177, ptr %14, align 8
  %178 = load ptr, ptr %14, align 8
  %179 = load ptr, ptr %4, align 8
  %180 = getelementptr inbounds %struct.png_image_read_control, ptr %179, i32 0, i32 5
  store ptr %178, ptr %180, align 8
  %181 = load ptr, ptr %5, align 8
  %182 = load ptr, ptr %4, align 8
  %183 = call i32 @png_safe_execute(ptr noundef %181, ptr noundef @png_image_read_and_map, ptr noundef %182)
  store i32 %183, ptr %13, align 4
  %184 = load ptr, ptr %4, align 8
  %185 = getelementptr inbounds %struct.png_image_read_control, ptr %184, i32 0, i32 5
  store ptr null, ptr %185, align 8
  %186 = load ptr, ptr %7, align 8
  %187 = load ptr, ptr %14, align 8
  call void @png_free(ptr noundef %186, ptr noundef %187)
  %188 = load i32, ptr %13, align 4
  store i32 %188, ptr %2, align 4
  br label %218

189:                                              ; preds = %163
  %190 = load ptr, ptr %4, align 8
  %191 = getelementptr inbounds %struct.png_image_read_control, ptr %190, i32 0, i32 7
  %192 = load i64, ptr %191, align 8
  store i64 %192, ptr %15, align 8
  br label %193

193:                                              ; preds = %216, %189
  %194 = load i32, ptr %9, align 4
  %195 = add nsw i32 %194, -1
  store i32 %195, ptr %9, align 4
  %196 = icmp sge i32 %195, 0
  br i1 %196, label %197, label %217

197:                                              ; preds = %193
  %198 = load ptr, ptr %5, align 8
  %199 = getelementptr inbounds %struct.png_image, ptr %198, i32 0, i32 3
  %200 = load i32, ptr %199, align 8
  store i32 %200, ptr %16, align 4
  %201 = load ptr, ptr %4, align 8
  %202 = getelementptr inbounds %struct.png_image_read_control, ptr %201, i32 0, i32 6
  %203 = load ptr, ptr %202, align 8
  store ptr %203, ptr %17, align 8
  br label %204

204:                                              ; preds = %213, %197
  %205 = load i32, ptr %16, align 4
  %206 = icmp ugt i32 %205, 0
  br i1 %206, label %207, label %216

207:                                              ; preds = %204
  %208 = load ptr, ptr %7, align 8
  %209 = load ptr, ptr %17, align 8
  call void @png_read_row(ptr noundef %208, ptr noundef %209, ptr noundef null)
  %210 = load i64, ptr %15, align 8
  %211 = load ptr, ptr %17, align 8
  %212 = getelementptr inbounds i8, ptr %211, i64 %210
  store ptr %212, ptr %17, align 8
  br label %213

213:                                              ; preds = %207
  %214 = load i32, ptr %16, align 4
  %215 = add i32 %214, -1
  store i32 %215, ptr %16, align 4
  br label %204, !llvm.loop !26

216:                                              ; preds = %204
  br label %193, !llvm.loop !27

217:                                              ; preds = %193
  store i32 1, ptr %2, align 4
  br label %218

218:                                              ; preds = %217, %172
  %219 = load i32, ptr %2, align 4
  ret i32 %219
}