; Function Attrs: nounwind uwtable
define internal i32 @png_image_read_colormapped(ptr noundef %0) #0 {
  %2 = load ptr, ptr %0, align 8
  %3 = load ptr, ptr %2, align 8
  %4 = load ptr, ptr %3, align 8
  %5 = getelementptr inbounds i8, ptr %3, i64 8
  %6 = load ptr, ptr %5, align 8
  tail call void @png_set_keep_unknown_chunks(ptr noundef %4, i32 noundef 1, ptr noundef null, i32 noundef -1) #11
  tail call void @png_set_keep_unknown_chunks(ptr noundef %4, i32 noundef 0, ptr noundef nonnull @png_image_skip_unused_chunks.chunks_to_process, i32 noundef 6) #11
  %7 = getelementptr inbounds i8, ptr %0, i64 72
  %8 = load i32, ptr %7, align 8
  %9 = icmp eq i32 %8, 0
  br i1 %9, label %10, label %12

10:                                               ; preds = %1
  %11 = tail call i32 @png_set_interlace_handling(ptr noundef %4) #11
  br label %12

12:                                               ; preds = %10, %1
  %.063 = phi i32 [ %11, %10 ], [ 0, %1 ]
  %.not.i = icmp eq ptr %4, null
  br i1 %.not.i, label %png_read_update_info.exit, label %13

13:                                               ; preds = %12
  %14 = getelementptr inbounds i8, ptr %4, i64 304
  %15 = load i32, ptr %14, align 8, !alias.scope !48, !noalias !51
  %16 = and i32 %15, 64
  %17 = icmp eq i32 %16, 0
  br i1 %17, label %18, label %19

18:                                               ; preds = %13
  tail call void @png_read_start_row(ptr noundef nonnull %4) #11, !noalias !51
  tail call void @png_read_transform_info(ptr noundef nonnull %4, ptr noundef %6) #11
  br label %png_read_update_info.exit

19:                                               ; preds = %13
  tail call void @png_app_error(ptr noundef nonnull %4, ptr noundef nonnull @.str.3) #11, !noalias !51
  br label %png_read_update_info.exit

png_read_update_info.exit:                        ; preds = %12, %18, %19
  %20 = load i32, ptr %7, align 8
  switch i32 %20, label %76 [
    i32 0, label %21
    i32 2, label %28
    i32 1, label %28
    i32 3, label %44
    i32 4, label %60
  ]

21:                                               ; preds = %png_read_update_info.exit
  %22 = getelementptr inbounds i8, ptr %6, i64 37
  %23 = load i8, ptr %22, align 1
  switch i8 %23, label %76 [
    i8 3, label %24
    i8 0, label %24
  ]

24:                                               ; preds = %21, %21
  %25 = getelementptr inbounds i8, ptr %6, i64 36
  %26 = load i8, ptr %25, align 4
  %27 = icmp eq i8 %26, 8
  br i1 %27, label %77, label %76

28:                                               ; preds = %png_read_update_info.exit, %png_read_update_info.exit
  %29 = getelementptr inbounds i8, ptr %6, i64 37
  %30 = load i8, ptr %29, align 1
  %31 = icmp eq i8 %30, 4
  br i1 %31, label %32, label %76

32:                                               ; preds = %28
  %33 = getelementptr inbounds i8, ptr %6, i64 36
  %34 = load i8, ptr %33, align 4
  %35 = icmp eq i8 %34, 8
  br i1 %35, label %36, label %76

36:                                               ; preds = %32
  %37 = getelementptr inbounds i8, ptr %4, i64 676
  %38 = load i32, ptr %37, align 4
  %39 = icmp eq i32 %38, 220000
  br i1 %39, label %40, label %76

40:                                               ; preds = %36
  %41 = getelementptr inbounds i8, ptr %2, i64 28
  %42 = load i32, ptr %41, align 4
  %43 = icmp eq i32 %42, 256
  br i1 %43, label %77, label %76

44:                                               ; preds = %png_read_update_info.exit
  %45 = getelementptr inbounds i8, ptr %6, i64 37
  %46 = load i8, ptr %45, align 1
  %47 = icmp eq i8 %46, 2
  br i1 %47, label %48, label %76

48:                                               ; preds = %44
  %49 = getelementptr inbounds i8, ptr %6, i64 36
  %50 = load i8, ptr %49, align 4
  %51 = icmp eq i8 %50, 8
  br i1 %51, label %52, label %76

52:                                               ; preds = %48
  %53 = getelementptr inbounds i8, ptr %4, i64 676
  %54 = load i32, ptr %53, align 4
  %55 = icmp eq i32 %54, 220000
  br i1 %55, label %56, label %76

56:                                               ; preds = %52
  %57 = getelementptr inbounds i8, ptr %2, i64 28
  %58 = load i32, ptr %57, align 4
  %59 = icmp eq i32 %58, 216
  br i1 %59, label %77, label %76

60:                                               ; preds = %png_read_update_info.exit
  %61 = getelementptr inbounds i8, ptr %6, i64 37
  %62 = load i8, ptr %61, align 1
  %63 = icmp eq i8 %62, 6
  br i1 %63, label %64, label %76

64:                                               ; preds = %60
  %65 = getelementptr inbounds i8, ptr %6, i64 36
  %66 = load i8, ptr %65, align 4
  %67 = icmp eq i8 %66, 8
  br i1 %67, label %68, label %76

68:                                               ; preds = %64
  %69 = getelementptr inbounds i8, ptr %4, i64 676
  %70 = load i32, ptr %69, align 4
  %71 = icmp eq i32 %70, 220000
  br i1 %71, label %72, label %76

72:                                               ; preds = %68
  %73 = getelementptr inbounds i8, ptr %2, i64 28
  %74 = load i32, ptr %73, align 4
  %75 = icmp eq i32 %74, 244
  br i1 %75, label %77, label %76

76:                                               ; preds = %21, %png_read_update_info.exit, %60, %64, %68, %72, %44, %48, %52, %56, %28, %32, %36, %40, %24
  tail call void @png_error(ptr noundef %4, ptr noundef nonnull @.str.51) #12
  unreachable

77:                                               ; preds = %72, %56, %40, %24
  %78 = getelementptr inbounds i8, ptr %0, i64 8
  %79 = load ptr, ptr %78, align 8
  %80 = getelementptr inbounds i8, ptr %0, i64 16
  %81 = load i32, ptr %80, align 8
  %82 = sext i32 %81 to i64
  %83 = icmp slt i32 %81, 0
  br i1 %83, label %84, label %92

84:                                               ; preds = %77
  %85 = getelementptr inbounds i8, ptr %2, i64 16
  %86 = load i32, ptr %85, align 8
  %87 = add i32 %86, -1
  %88 = zext i32 %87 to i64
  %89 = mul nsw i64 %82, %88
  %90 = sub nsw i64 0, %89
  %91 = getelementptr inbounds i8, ptr %79, i64 %90
  br label %92

92:                                               ; preds = %84, %77
  %.064 = phi ptr [ %91, %84 ], [ %79, %77 ]
  %93 = getelementptr inbounds i8, ptr %0, i64 48
  store ptr %.064, ptr %93, align 8
  %94 = getelementptr inbounds i8, ptr %0, i64 56
  store i64 %82, ptr %94, align 8
  %95 = icmp eq i32 %.063, 0
  br i1 %95, label %100, label %.preheader

.preheader:                                       ; preds = %92
  %96 = icmp sgt i32 %.063, 0
  br i1 %96, label %.lr.ph72, label %.loopexit68

.lr.ph72:                                         ; preds = %.preheader
  %97 = getelementptr inbounds i8, ptr %2, i64 16
  %98 = load i32, ptr %97, align 8
  %99 = icmp eq i32 %98, 0
  br i1 %99, label %.loopexit68, label %.lr.ph72.split

100:                                              ; preds = %92
  %101 = tail call i64 @png_get_rowbytes(ptr noundef %4, ptr noundef nonnull %6) #11
  %102 = tail call noalias ptr @png_malloc(ptr noundef %4, i64 noundef %101) #11
  %103 = getelementptr inbounds i8, ptr %0, i64 40
  store ptr %102, ptr %103, align 8
  %104 = tail call i32 @png_safe_execute(ptr noundef nonnull %2, ptr noundef nonnull @png_image_read_and_map, ptr noundef nonnull %0) #11
  store ptr null, ptr %103, align 8
  tail call void @png_free(ptr noundef %4, ptr noundef %102) #11
  br label %.loopexit68

.loopexit:                                        ; preds = %.lr.ph, %.lr.ph72.split
  %105 = icmp sgt i32 %.in, 1
  br i1 %105, label %.lr.ph72.splitthread-pre-split, label %.loopexit68, !llvm.loop !53

.lr.ph72.splitthread-pre-split:                   ; preds = %.loopexit
  %.pr = load i32, ptr %97, align 8
  br label %.lr.ph72.split

.lr.ph72.split:                                   ; preds = %.lr.ph72, %.lr.ph72.splitthread-pre-split
  %106 = phi i32 [ %.pr, %.lr.ph72.splitthread-pre-split ], [ %98, %.lr.ph72 ]
  %.in = phi i32 [ %107, %.lr.ph72.splitthread-pre-split ], [ %.063, %.lr.ph72 ]
  %107 = add nsw i32 %.in, -1
  %.not69 = icmp eq i32 %106, 0
  br i1 %.not69, label %.loopexit, label %.lr.ph.preheader

.lr.ph.preheader:                                 ; preds = %.lr.ph72.split
  %108 = load ptr, ptr %93, align 8
  br label %.lr.ph

.lr.ph:                                           ; preds = %.lr.ph.preheader, %.lr.ph
  %.071 = phi ptr [ %109, %.lr.ph ], [ %108, %.lr.ph.preheader ]
  %.06170 = phi i32 [ %110, %.lr.ph ], [ %106, %.lr.ph.preheader ]
  tail call void @png_read_row(ptr noundef %4, ptr noundef %.071, ptr noundef null)
  %109 = getelementptr inbounds i8, ptr %.071, i64 %82
  %110 = add i32 %.06170, -1
  %.not = icmp eq i32 %110, 0
  br i1 %.not, label %.loopexit, label %.lr.ph, !llvm.loop !55

.loopexit68:                                      ; preds = %.loopexit, %.lr.ph72, %.preheader, %100
  %.062 = phi i32 [ %104, %100 ], [ 1, %.preheader ], [ 1, %.lr.ph72 ], [ 1, %.loopexit ]
  ret i32 %.062
}